target datalayout = "e-m:e-p270:32:32-p271:32:32-p272:64:64-i64:64-i128:128-f80:128-n8:16:32:64-S128"
target triple = "x86_64-pc-linux-gnu"

%union.pthread_mutex_t = type { %struct.__pthread_mutex_s }
%struct.__pthread_mutex_s = type { i32, i32, i32, i32, i32, i16, i16, %struct.__pthread_internal_list }
%struct.__pthread_internal_list = type { ptr, ptr }
%struct.pmix_tma = type { ptr, ptr, ptr, ptr, ptr, ptr, ptr, ptr }
%struct.pmix_mca_base_var_enum_t = type { %struct.pmix_object_t, i8, ptr, ptr, ptr, ptr, ptr, ptr, i32, ptr }
%struct.pmix_object_t = type { %union.pthread_mutex_t, ptr, i32, %struct.pmix_tma }
%struct.pmix_mca_base_var_enum_value_t = type { i32, ptr }

; Function Attrs: nounwind uwtable
define internal i32 @enum_get_value(ptr noundef %0, i32 noundef %1, ptr noundef %2, ptr noundef %3) #0 {
  %5 = alloca i32, align 4
  %6 = alloca ptr, align 8
  %7 = alloca i32, align 4
  %8 = alloca ptr, align 8
  %9 = alloca ptr, align 8
  %10 = alloca i32, align 4
  %11 = alloca i32, align 4
  %12 = alloca i32, align 4
  store ptr %0, ptr %6, align 8, !tbaa !3
  store i32 %1, ptr %7, align 4, !tbaa !24
  store ptr %2, ptr %8, align 8, !tbaa !45
  store ptr %3, ptr %9, align 8, !tbaa !47
  call void @llvm.lifetime.start.p0(i64 4, ptr %10) #13
  call void @llvm.lifetime.start.p0(i64 4, ptr %11) #13
  %13 = load ptr, ptr %6, align 8, !tbaa !3
  %14 = getelementptr inbounds nuw %struct.pmix_mca_base_var_enum_t, ptr %13, i32 0, i32 3
  %15 = load ptr, ptr %14, align 8, !tbaa !17
  %16 = load ptr, ptr %6, align 8, !tbaa !3
  %17 = call i32 %15(ptr noundef %16, ptr noundef %10)
  store i32 %17, ptr %11, align 4, !tbaa !24
  %18 = load i32, ptr %11, align 4, !tbaa !24
  %19 = icmp ne i32 0, %18
  br i1 %19, label %20, label %22

20:                                               ; preds = %4
  %21 = load i32, ptr %11, align 4, !tbaa !24
  store i32 %21, ptr %5, align 4
  store i32 1, ptr %12, align 4
  br label %55

22:                                               ; preds = %4
  %23 = load i32, ptr %7, align 4, !tbaa !24
  %24 = load i32, ptr %10, align 4, !tbaa !24
  %25 = icmp sge i32 %23, %24
  br i1 %25, label %26, label %27

26:                                               ; preds = %22
  store i32 -65, ptr %5, align 4
  store i32 1, ptr %12, align 4
  br label %55

27:                                               ; preds = %22
  %28 = load ptr, ptr %8, align 8, !tbaa !45
  %29 = icmp ne ptr %28, null
  br i1 %29, label %30, label %40

30:                                               ; preds = %27
  %31 = load ptr, ptr %6, align 8, !tbaa !3
  %32 = getelementptr inbounds nuw %struct.pmix_mca_base_var_enum_t, ptr %31, i32 0, i32 9
  %33 = load ptr, ptr %32, align 8, !tbaa !23
  %34 = load i32, ptr %7, align 4, !tbaa !24
  %35 = sext i32 %34 to i64
  %36 = getelementptr inbounds %struct.pmix_mca_base_var_enum_value_t, ptr %33, i64 %35
  %37 = getelementptr inbounds nuw %struct.pmix_mca_base_var_enum_value_t, ptr %36, i32 0, i32 0
  %38 = load i32, ptr %37, align 8, !tbaa !51
  %39 = load ptr, ptr %8, align 8, !tbaa !45
  store i32 %38, ptr %39, align 4, !tbaa !24
  br label %40

40:                                               ; preds = %30, %27
  %41 = load ptr, ptr %9, align 8, !tbaa !47
  %42 = icmp ne ptr %41, null
  br i1 %42, label %43, label %54

43:                                               ; preds = %40
  %44 = load ptr, ptr %6, align 8, !tbaa !3
  %45 = getelementptr inbounds nuw %struct.pmix_mca_base_var_enum_t, ptr %44, i32 0, i32 9
  %46 = load ptr, ptr %45, align 8, !tbaa !23
  %47 = load i32, ptr %7, align 4, !tbaa !24
  %48 = sext i32 %47 to i64
  %49 = getelementptr inbounds %struct.pmix_mca_base_var_enum_value_t, ptr %46, i64 %48
  %50 = getelementptr inbounds nuw %struct.pmix_mca_base_var_enum_value_t, ptr %49, i32 0, i32 1
  %51 = load ptr, ptr %50, align 8, !tbaa !26
  %52 = call noalias ptr @strdup(ptr noundef %51) #13
  %53 = load ptr, ptr %9, align 8, !tbaa !47
  store ptr %52, ptr %53, align 8, !tbaa !49
  br label %54

54:                                               ; preds = %43, %40
  store i32 0, ptr %5, align 4
  store i32 1, ptr %12, align 4
  br label %55

55:                                               ; preds = %54, %26, %20
  call void @llvm.lifetime.end.p0(i64 4, ptr %11) #13
  call void @llvm.lifetime.end.p0(i64 4, ptr %10) #13
  %56 = load i32, ptr %5, align 4
  ret i32 %56
}